target datalayout = "e-m:e-p270:32:32-p271:32:32-p272:64:64-i64:64-i128:128-f80:128-n8:16:32:64-S128"
target triple = "x86_64-pc-linux-gnu"

%struct.IdcinContext = type { ptr, ptr, i32, [256 x [512 x %struct.hnode]], [256 x i32], [256 x i32] }
%struct.hnode = type { i32, i8, [2 x i32] }

; Function Attrs: cold nounwind optsize uwtable
define internal void @huff_build_tree(ptr noundef %0, i32 noundef %1) #0 {
  %3 = alloca ptr, align 8
  %4 = alloca i32, align 4
  %5 = alloca ptr, align 8
  %6 = alloca ptr, align 8
  %7 = alloca i32, align 4
  %8 = alloca i32, align 4
  store ptr %0, ptr %3, align 8, !tbaa !29
  store i32 %1, ptr %4, align 4, !tbaa !31
  call void @llvm.lifetime.start.p0(i64 8, ptr %5) #5
  call void @llvm.lifetime.start.p0(i64 8, ptr %6) #5
  call void @llvm.lifetime.start.p0(i64 4, ptr %7) #5
  call void @llvm.lifetime.start.p0(i64 4, ptr %8) #5
  store i32 256, ptr %7, align 4, !tbaa !31
  %9 = load ptr, ptr %3, align 8, !tbaa !29
  %10 = getelementptr inbounds nuw %struct.IdcinContext, ptr %9, i32 0, i32 3
  %11 = load i32, ptr %4, align 4, !tbaa !31
  %12 = sext i32 %11 to i64
  %13 = getelementptr inbounds [256 x [512 x %struct.hnode]], ptr %10, i64 0, i64 %12
  %14 = getelementptr inbounds [512 x %struct.hnode], ptr %13, i64 0, i64 0
  store ptr %14, ptr %6, align 8, !tbaa !54
  store i32 0, ptr %8, align 4, !tbaa !31
  br label %15

15:                                               ; preds = %24, %2
  %16 = load i32, ptr %8, align 4, !tbaa !31
  %17 = icmp slt i32 %16, 512
  br i1 %17, label %18, label %27

18:                                               ; preds = %15
  %19 = load ptr, ptr %6, align 8, !tbaa !54
  %20 = load i32, ptr %8, align 4, !tbaa !31
  %21 = sext i32 %20 to i64
  %22 = getelementptr inbounds %struct.hnode, ptr %19, i64 %21
  %23 = getelementptr inbounds nuw %struct.hnode, ptr %22, i32 0, i32 1
  store i8 0, ptr %23, align 4, !tbaa !56
  br label %24

24:                                               ; preds = %18
  %25 = load i32, ptr %8, align 4, !tbaa !31
  %26 = add nsw i32 %25, 1
  store i32 %26, ptr %8, align 4, !tbaa !31
  br label %15, !llvm.loop !57

27:                                               ; preds = %15
  br label %28

28:                                               ; preds = %59, %27
  br label %29

29:                                               ; preds = %28
  %30 = load ptr, ptr %6, align 8, !tbaa !54
  %31 = load i32, ptr %7, align 4, !tbaa !31
  %32 = sext i32 %31 to i64
  %33 = getelementptr inbounds %struct.hnode, ptr %30, i64 %32
  store ptr %33, ptr %5, align 8, !tbaa !54
  %34 = load ptr, ptr %6, align 8, !tbaa !54
  %35 = load i32, ptr %7, align 4, !tbaa !31
  %36 = call i32 @huff_smallest_node(ptr noundef %34, i32 noundef %35)
  %37 = load ptr, ptr %5, align 8, !tbaa !54
  %38 = getelementptr inbounds nuw %struct.hnode, ptr %37, i32 0, i32 2
  %39 = getelementptr inbounds [2 x i32], ptr %38, i64 0, i64 0
  store i32 %36, ptr %39, align 4, !tbaa !31
  %40 = load ptr, ptr %5, align 8, !tbaa !54
  %41 = getelementptr inbounds nuw %struct.hnode, ptr %40, i32 0, i32 2
  %42 = getelementptr inbounds [2 x i32], ptr %41, i64 0, i64 0
  %43 = load i32, ptr %42, align 4, !tbaa !31
  %44 = icmp eq i32 %43, -1
  br i1 %44, label %45, label %46

45:                                               ; preds = %29
  br label %83

46:                                               ; preds = %29
  %47 = load ptr, ptr %6, align 8, !tbaa !54
  %48 = load i32, ptr %7, align 4, !tbaa !31
  %49 = call i32 @huff_smallest_node(ptr noundef %47, i32 noundef %48)
  %50 = load ptr, ptr %5, align 8, !tbaa !54
  %51 = getelementptr inbounds nuw %struct.hnode, ptr %50, i32 0, i32 2
  %52 = getelementptr inbounds [2 x i32], ptr %51, i64 0, i64 1
  store i32 %49, ptr %52, align 4, !tbaa !31
  %53 = load ptr, ptr %5, align 8, !tbaa !54
  %54 = getelementptr inbounds nuw %struct.hnode, ptr %53, i32 0, i32 2
  %55 = getelementptr inbounds [2 x i32], ptr %54, i64 0, i64 1
  %56 = load i32, ptr %55, align 4, !tbaa !31
  %57 = icmp eq i32 %56, -1
  br i1 %57, label %58, label %59

58:                                               ; preds = %46
  br label %83

59:                                               ; preds = %46
  %60 = load ptr, ptr %6, align 8, !tbaa !54
  %61 = load ptr, ptr %5, align 8, !tbaa !54
  %62 = getelementptr inbounds nuw %struct.hnode, ptr %61, i32 0, i32 2
  %63 = getelementptr inbounds [2 x i32], ptr %62, i64 0, i64 0
  %64 = load i32, ptr %63, align 4, !tbaa !31
  %65 = sext i32 %64 to i64
  %66 = getelementptr inbounds %struct.hnode, ptr %60, i64 %65
  %67 = getelementptr inbounds nuw %struct.hnode, ptr %66, i32 0, i32 0
  %68 = load i32, ptr %67, align 4, !tbaa !39
  %69 = load ptr, ptr %6, align 8, !tbaa !54
  %70 = load ptr, ptr %5, align 8, !tbaa !54
  %71 = getelementptr inbounds nuw %struct.hnode, ptr %70, i32 0, i32 2
  %72 = getelementptr inbounds [2 x i32], ptr %71, i64 0, i64 1
  %73 = load i32, ptr %72, align 4, !tbaa !31
  %74 = sext i32 %73 to i64
  %75 = getelementptr inbounds %struct.hnode, ptr %69, i64 %74
  %76 = getelementptr inbounds nuw %struct.hnode, ptr %75, i32 0, i32 0
  %77 = load i32, ptr %76, align 4, !tbaa !39
  %78 = add nsw i32 %68, %77
  %79 = load ptr, ptr %5, align 8, !tbaa !54
  %80 = getelementptr inbounds nuw %struct.hnode, ptr %79, i32 0, i32 0
  store i32 %78, ptr %80, align 4, !tbaa !39
  %81 = load i32, ptr %7, align 4, !tbaa !31
  %82 = add nsw i32 %81, 1
  store i32 %82, ptr %7, align 4, !tbaa !31
  br label %28

83:                                               ; preds = %58, %45
  %84 = load i32, ptr %7, align 4, !tbaa !31
  %85 = sub nsw i32 %84, 1
  %86 = load ptr, ptr %3, align 8, !tbaa !29
  %87 = getelementptr inbounds nuw %struct.IdcinContext, ptr %86, i32 0, i32 4
  %88 = load i32, ptr %4, align 4, !tbaa !31
  %89 = sext i32 %88 to i64
  %90 = getelementptr inbounds [256 x i32], ptr %87, i64 0, i64 %89
  store i32 %85, ptr %90, align 4, !tbaa !31
  call void @llvm.lifetime.end.p0(i64 4, ptr %8) #5
  call void @llvm.lifetime.end.p0(i64 4, ptr %7) #5
  call void @llvm.lifetime.end.p0(i64 8, ptr %6) #5
  call void @llvm.lifetime.end.p0(i64 8, ptr %5) #5
  ret void
}