; Function Attrs: cold nofree norecurse nosync nounwind optsize memory(argmem: readwrite) uwtable
define internal fastcc void @huff_build_tree(ptr noundef captures(none) %0, i32 noundef range(i32 -2147483648, 256) %1) unnamed_addr #3 {
  %3 = getelementptr inbounds nuw i8, ptr %0, i64 20
  %4 = sext i32 %1 to i64
  %5 = getelementptr inbounds [256 x [512 x %struct.hnode]], ptr %3, i64 0, i64 %4
  br label %10

.preheader:                                       ; preds = %10
  %6 = tail call fastcc i32 @huff_smallest_node(ptr noundef nonnull %5, i32 noundef 256)
  %7 = getelementptr inbounds nuw i8, ptr %5, i64 4104
  store i32 %6, ptr %7, align 4, !tbaa !44
  %8 = icmp eq i32 %6, -1
  br i1 %8, label %._crit_edge, label %.lr.ph.preheader

.lr.ph.preheader:                                 ; preds = %.preheader
  %9 = getelementptr inbounds nuw i8, ptr %5, i64 4096
  br label %.lr.ph

10:                                               ; preds = %2, %10
  %indvars.iv = phi i64 [ 0, %2 ], [ %indvars.iv.next, %10 ]
  %11 = getelementptr inbounds nuw %struct.hnode, ptr %5, i64 %indvars.iv, i32 1
  store i8 0, ptr %11, align 4, !tbaa !51
  %indvars.iv.next = add nuw nsw i64 %indvars.iv, 1
  %exitcond.not = icmp eq i64 %indvars.iv.next, 512
  br i1 %exitcond.not, label %.preheader, label %10, !llvm.loop !52

.lr.ph:                                           ; preds = %.lr.ph.preheader, %18
  %indvars.iv31 = phi i64 [ 256, %.lr.ph.preheader ], [ %indvars.iv.next32, %18 ]
  %12 = phi ptr [ %7, %.lr.ph.preheader ], [ %29, %18 ]
  %13 = phi ptr [ %9, %.lr.ph.preheader ], [ %27, %18 ]
  %14 = trunc nuw nsw i64 %indvars.iv31 to i32
  %15 = tail call fastcc i32 @huff_smallest_node(ptr noundef nonnull %5, i32 noundef %14)
  %16 = getelementptr inbounds nuw i8, ptr %13, i64 12
  store i32 %15, ptr %16, align 4, !tbaa !44
  %17 = icmp eq i32 %15, -1
  br i1 %17, label %._crit_edge.loopexit, label %18

18:                                               ; preds = %.lr.ph
  %19 = load i32, ptr %12, align 4, !tbaa !44
  %20 = sext i32 %19 to i64
  %21 = getelementptr inbounds %struct.hnode, ptr %5, i64 %20
  %22 = load i32, ptr %21, align 4, !tbaa !34
  %23 = sext i32 %15 to i64
  %24 = getelementptr inbounds %struct.hnode, ptr %5, i64 %23
  %25 = load i32, ptr %24, align 4, !tbaa !34
  %26 = add nsw i32 %25, %22
  store i32 %26, ptr %13, align 4, !tbaa !34
  %indvars.iv.next32 = add nuw nsw i64 %indvars.iv31, 1
  %indvars = trunc i64 %indvars.iv.next32 to i32
  %27 = getelementptr inbounds nuw %struct.hnode, ptr %5, i64 %indvars.iv.next32
  %28 = tail call fastcc i32 @huff_smallest_node(ptr noundef nonnull %5, i32 noundef %indvars)
  %29 = getelementptr inbounds nuw i8, ptr %27, i64 8
  store i32 %28, ptr %29, align 4, !tbaa !44
  %30 = icmp eq i32 %28, -1
  br i1 %30, label %._crit_edge.loopexit, label %.lr.ph

._crit_edge.loopexit:                             ; preds = %.lr.ph, %18
  %.024.lcssa.ph = phi i32 [ %indvars, %18 ], [ %14, %.lr.ph ]
  %31 = add nsw i32 %.024.lcssa.ph, -1
  br label %._crit_edge

._crit_edge:                                      ; preds = %._crit_edge.loopexit, %.preheader
  %.024.lcssa = phi i32 [ 255, %.preheader ], [ %31, %._crit_edge.loopexit ]
  %32 = getelementptr inbounds nuw i8, ptr %0, i64 2097172
  %33 = getelementptr inbounds [256 x i32], ptr %32, i64 0, i64 %4
  store i32 %.024.lcssa, ptr %33, align 4, !tbaa !44
  ret void
}